target datalayout = "e-m:e-p270:32:32-p271:32:32-p272:64:64-i64:64-i128:128-f80:128-n8:16:32:64-S128"
target triple = "x86_64-pc-linux-gnu"

@pg_data = internal global ptr null, align 8
@progname = internal global ptr null, align 8
@.str.42 = private unnamed_addr constant [27 x i8] c"creating directory %s ... \00", align 1
@stdout = external global ptr, align 8
@pg_dir_create_mode = external global i32, align 4
@.str.43 = private unnamed_addr constant [36 x i8] c"could not create directory \22%s\22: %m\00", align 1
@made_new_pgdata = internal global i8 0, align 1
@.str.44 = private unnamed_addr constant [49 x i8] c"fixing permissions on existing directory %s ... \00", align 1
@.str.45 = private unnamed_addr constant [51 x i8] c"could not change permissions of directory \22%s\22: %m\00", align 1
@found_existing_pgdata = internal global i8 0, align 1
@.str.46 = private unnamed_addr constant [39 x i8] c"directory \22%s\22 exists but is not empty\00", align 1
@.str.47 = private unnamed_addr constant [131 x i8] c"If you want to create a new database system, either remove or empty the directory \22%s\22 or run %s with an argument other than \22%s\22.\00", align 1
@.str.48 = private unnamed_addr constant [36 x i8] c"could not access directory \22%s\22: %m\00", align 1

; Function Attrs: nounwind uwtable
define dso_local void @create_data_directory() #0 {
  %1 = alloca i32, align 4
  call void @llvm.lifetime.start.p0(i64 4, ptr %1) #10
  %2 = load ptr, ptr @pg_data, align 8
  %3 = call i32 @pg_check_dir(ptr noundef %2)
  store i32 %3, ptr %1, align 4
  switch i32 %3, label %47 [
    i32 0, label %4
    i32 1, label %20
    i32 2, label %36
    i32 3, label %36
    i32 4, label %36
  ]

4:                                                ; preds = %0
  %5 = load ptr, ptr @pg_data, align 8
  %6 = call i32 (ptr, ...) @pg_printf(ptr noundef @.str.42, ptr noundef %5)
  %7 = load ptr, ptr @stdout, align 8
  %8 = call i32 @fflush(ptr noundef %7)
  %9 = load ptr, ptr @pg_data, align 8
  %10 = load i32, ptr @pg_dir_create_mode, align 4
  %11 = call i32 @pg_mkdir_p(ptr noundef %9, i32 noundef %10)
  %12 = icmp ne i32 %11, 0
  br i1 %12, label %13, label %18

13:                                               ; preds = %4
  br label %14

14:                                               ; preds = %13
  %15 = load ptr, ptr @pg_data, align 8
  call void (i32, i32, ptr, ...) @pg_log_generic(i32 noundef 4, i32 noundef 0, ptr noundef @.str.43, ptr noundef %15)
  call void @exit(i32 noundef 1) #12
  unreachable

16:                                               ; No predecessors!
  br label %17

17:                                               ; preds = %16
  br label %19

18:                                               ; preds = %4
  call void @check_ok()
  br label %19

19:                                               ; preds = %18, %17
  store i8 1, ptr @made_new_pgdata, align 1
  br label %52

20:                                               ; preds = %0
  %21 = load ptr, ptr @pg_data, align 8
  %22 = call i32 (ptr, ...) @pg_printf(ptr noundef @.str.44, ptr noundef %21)
  %23 = load ptr, ptr @stdout, align 8
  %24 = call i32 @fflush(ptr noundef %23)
  %25 = load ptr, ptr @pg_data, align 8
  %26 = load i32, ptr @pg_dir_create_mode, align 4
  %27 = call i32 @chmod(ptr noundef %25, i32 noundef %26) #10
  %28 = icmp ne i32 %27, 0
  br i1 %28, label %29, label %34

29:                                               ; preds = %20
  br label %30

30:                                               ; preds = %29
  %31 = load ptr, ptr @pg_data, align 8
  call void (i32, i32, ptr, ...) @pg_log_generic(i32 noundef 4, i32 noundef 0, ptr noundef @.str.45, ptr noundef %31)
  call void @exit(i32 noundef 1) #12
  unreachable

32:                                               ; No predecessors!
  br label %33

33:                                               ; preds = %32
  br label %35

34:                                               ; preds = %20
  call void @check_ok()
  br label %35

35:                                               ; preds = %34, %33
  store i8 1, ptr @found_existing_pgdata, align 1
  br label %52

36:                                               ; preds = %0, %0, %0
  %37 = load ptr, ptr @pg_data, align 8
  call void (i32, i32, ptr, ...) @pg_log_generic(i32 noundef 4, i32 noundef 0, ptr noundef @.str.46, ptr noundef %37)
  %38 = load i32, ptr %1, align 4
  %39 = icmp ne i32 %38, 4
  br i1 %39, label %40, label %42

40:                                               ; preds = %36
  %41 = load i32, ptr %1, align 4
  call void @warn_on_mount_point(i32 noundef %41)
  br label %46

42:                                               ; preds = %36
  %43 = load ptr, ptr @pg_data, align 8
  %44 = load ptr, ptr @progname, align 8
  %45 = load ptr, ptr @pg_data, align 8
  call void (i32, i32, ptr, ...) @pg_log_generic(i32 noundef 4, i32 noundef 2, ptr noundef @.str.47, ptr noundef %43, ptr noundef %44, ptr noundef %45)
  br label %46

46:                                               ; preds = %42, %40
  call void @exit(i32 noundef 1) #12
  unreachable

47:                                               ; preds = %0
  br label %48

48:                                               ; preds = %47
  %49 = load ptr, ptr @pg_data, align 8
  call void (i32, i32, ptr, ...) @pg_log_generic(i32 noundef 4, i32 noundef 0, ptr noundef @.str.48, ptr noundef %49)
  call void @exit(i32 noundef 1) #12
  unreachable

50:                                               ; No predecessors!
  br label %51

51:                                               ; preds = %50
  br label %52

52:                                               ; preds = %51, %35, %19
  call void @llvm.lifetime.end.p0(i64 4, ptr %1) #10
  ret void
}