; Function Attrs: nounwind uwtable
define dso_local void @create_data_directory() local_unnamed_addr #0 {
  %1 = load ptr, ptr @pg_data, align 8
  %2 = tail call i32 @pg_check_dir(ptr noundef %1) #19
  switch i32 %2, label %30 [
    i32 0, label %3
    i32 1, label %13
    i32 2, label %23
    i32 3, label %23
    i32 4, label %23
  ]

3:                                                ; preds = %0
  %4 = load ptr, ptr @pg_data, align 8
  %5 = tail call i32 (ptr, ...) @pg_printf(ptr noundef nonnull @.str.42, ptr noundef %4) #19
  %6 = load ptr, ptr @stdout, align 8
  %7 = tail call i32 @fflush(ptr noundef %6)
  %8 = load ptr, ptr @pg_data, align 8
  %9 = load i32, ptr @pg_dir_create_mode, align 4
  %10 = tail call i32 @pg_mkdir_p(ptr noundef %8, i32 noundef %9) #19
  %.not3 = icmp eq i32 %10, 0
  br i1 %.not3, label %32, label %11

11:                                               ; preds = %3
  %12 = load ptr, ptr @pg_data, align 8
  tail call void (i32, i32, ptr, ...) @pg_log_generic(i32 noundef 4, i32 noundef 0, ptr noundef nonnull @.str.43, ptr noundef %12) #19
  tail call void @exit(i32 noundef 1) #20
  unreachable

13:                                               ; preds = %0
  %14 = load ptr, ptr @pg_data, align 8
  %15 = tail call i32 (ptr, ...) @pg_printf(ptr noundef nonnull @.str.44, ptr noundef %14) #19
  %16 = load ptr, ptr @stdout, align 8
  %17 = tail call i32 @fflush(ptr noundef %16)
  %18 = load ptr, ptr @pg_data, align 8
  %19 = load i32, ptr @pg_dir_create_mode, align 4
  %20 = tail call i32 @chmod(ptr noundef %18, i32 noundef %19) #19
  %.not2 = icmp eq i32 %20, 0
  br i1 %.not2, label %32, label %21

21:                                               ; preds = %13
  %22 = load ptr, ptr @pg_data, align 8
  tail call void (i32, i32, ptr, ...) @pg_log_generic(i32 noundef 4, i32 noundef 0, ptr noundef nonnull @.str.45, ptr noundef %22) #19
  tail call void @exit(i32 noundef 1) #20
  unreachable

23:                                               ; preds = %0, %0, %0
  %24 = load ptr, ptr @pg_data, align 8
  tail call void (i32, i32, ptr, ...) @pg_log_generic(i32 noundef 4, i32 noundef 0, ptr noundef nonnull @.str.46, ptr noundef %24) #19
  %.not = icmp eq i32 %2, 4
  br i1 %.not, label %26, label %25

25:                                               ; preds = %23
  tail call void @warn_on_mount_point(i32 noundef %2)
  br label %29

26:                                               ; preds = %23
  %27 = load ptr, ptr @pg_data, align 8
  %28 = load ptr, ptr @progname, align 8
  tail call void (i32, i32, ptr, ...) @pg_log_generic(i32 noundef 4, i32 noundef 2, ptr noundef nonnull @.str.47, ptr noundef %27, ptr noundef %28, ptr noundef %27) #19
  br label %29

29:                                               ; preds = %26, %25
  tail call void @exit(i32 noundef 1) #20
  unreachable

30:                                               ; preds = %0
  %31 = load ptr, ptr @pg_data, align 8
  tail call void (i32, i32, ptr, ...) @pg_log_generic(i32 noundef 4, i32 noundef 0, ptr noundef nonnull @.str.48, ptr noundef %31) #19
  tail call void @exit(i32 noundef 1) #20
  unreachable

32:                                               ; preds = %13, %3
  %found_existing_pgdata.sink = phi ptr [ @made_new_pgdata, %3 ], [ @found_existing_pgdata, %13 ]
  tail call fastcc void @check_ok()
  store i1 true, ptr %found_existing_pgdata.sink, align 1
  ret void
}